target datalayout = "e-m:e-p270:32:32-p271:32:32-p272:64:64-i64:64-i128:128-f80:128-n8:16:32:64-S128"
target triple = "x86_64-pc-linux-gnu"

%"struct.Luau::PendingTypePack" = type { %"struct.Luau::TypePackVar" }
%"struct.Luau::TypePackVar" = type { %"class.Luau::Variant.30", i8, ptr }
%"class.Luau::Variant.30" = type { i32, [4 x i8], [64 x i8] }
%"struct.Luau::TypeLevel" = type { i32, i32 }
%"struct.Luau::FreeTypePack" = type { i32, %"struct.Luau::TypeLevel", ptr }
%"struct.Luau::NotNull.119" = type { ptr }

; Function Attrs: mustprogress nounwind uwtable
define linkonce_odr dso_local noundef ptr @_ZN4Luau7VariantIJNS_9Unifiable5BoundIPKNS_11TypePackVarEEENS1_5ErrorENS_12FreeTypePackENS_15GenericTypePackENS_8TypePackENS_16VariadicTypePackENS_15BlockedTypePackENS_26TypeFamilyInstanceTypePackEEE6get_ifIS8_EEPT_v(ptr noundef nonnull align 8 dereferenceable(72) %0) #5 comdat align 2 {
  %2 = alloca ptr, align 8
  %3 = alloca i32, align 4
  store ptr %0, ptr %2, align 8
  %4 = load ptr, ptr %2, align 8
  store i32 2, ptr %3, align 4
  %5 = getelementptr inbounds %"class.Luau::Variant.30", ptr %4, i32 0, i32 0
  %6 = load i32, ptr %5, align 8
  %7 = icmp eq i32 2, %6
  br i1 %7, label %8, label %10

8:                                                ; preds = %1
  %9 = getelementptr inbounds %"class.Luau::Variant.30", ptr %4, i32 0, i32 2
  br label %11

10:                                               ; preds = %1
  br label %11

11:                                               ; preds = %10, %8
  %12 = phi ptr [ %9, %8 ], [ null, %10 ]
  ret ptr %12
}

; Function Attrs: mustprogress uwtable
define linkonce_odr dso_local noundef ptr @_ZN4Luau6get_ifINS_12FreeTypePackEJNS_9Unifiable5BoundIPKNS_11TypePackVarEEENS2_5ErrorES1_NS_15GenericTypePackENS_8TypePackENS_16VariadicTypePackENS_15BlockedTypePackENS_26TypeFamilyInstanceTypePackEEEEPT_PNS_7VariantIJDpT0_EEE(ptr noundef %0) #2 comdat {
  %2 = alloca ptr, align 8
  store ptr %0, ptr %2, align 8
  %3 = load ptr, ptr %2, align 8
  %4 = icmp ne ptr %3, null
  br i1 %4, label %5, label %8

5:                                                ; preds = %1
  %6 = load ptr, ptr %2, align 8
  %7 = call noundef ptr @_ZN4Luau7VariantIJNS_9Unifiable5BoundIPKNS_11TypePackVarEEENS1_5ErrorENS_12FreeTypePackENS_15GenericTypePackENS_8TypePackENS_16VariadicTypePackENS_15BlockedTypePackENS_26TypeFamilyInstanceTypePackEEE6get_ifIS8_EEPT_v(ptr noundef nonnull align 8 dereferenceable(72) %6)
  br label %9

8:                                                ; preds = %1
  br label %9

9:                                                ; preds = %8, %5
  %10 = phi ptr [ %7, %5 ], [ null, %8 ]
  ret ptr %10
}

; Function Attrs: mustprogress uwtable
define linkonce_odr dso_local noundef ptr @_ZN4Luau10getMutableINS_12FreeTypePackEEEPT_PKNS_11TypePackVarE(ptr noundef %0) #2 comdat {
  %2 = alloca ptr, align 8
  store ptr %0, ptr %2, align 8
  %3 = load ptr, ptr %2, align 8
  %4 = call noundef ptr @_ZN4Luau9asMutableEPKNS_11TypePackVarE(ptr noundef %3)
  %5 = getelementptr inbounds %"struct.Luau::TypePackVar", ptr %4, i32 0, i32 0
  %6 = call noundef ptr @_ZN4Luau6get_ifINS_12FreeTypePackEJNS_9Unifiable5BoundIPKNS_11TypePackVarEEENS2_5ErrorES1_NS_15GenericTypePackENS_8TypePackENS_16VariadicTypePackENS_15BlockedTypePackENS_26TypeFamilyInstanceTypePackEEEEPT_PNS_7VariantIJDpT0_EEE(ptr noundef %5)
  ret ptr %6
}

; Function Attrs: mustprogress nounwind uwtable
define linkonce_odr dso_local noundef ptr @_ZNK4Luau7NotNullINS_5ScopeEEcvPS1_Ev(ptr noundef nonnull align 8 dereferenceable(8) %0) #5 comdat align 2 {
  %2 = alloca ptr, align 8
  store ptr %0, ptr %2, align 8
  %3 = load ptr, ptr %2, align 8
  %4 = getelementptr inbounds %"struct.Luau::NotNull.119", ptr %3, i32 0, i32 0
  %5 = load ptr, ptr %4, align 8
  ret ptr %5
}

; Function Attrs: mustprogress uwtable
define linkonce_odr dso_local noundef ptr @_ZN4Luau10getMutableINS_12FreeTypePackEEEPT_PNS_15PendingTypePackE(ptr noundef %0) #2 comdat {
  %2 = alloca ptr, align 8
  store ptr %0, ptr %2, align 8
  %3 = load ptr, ptr %2, align 8
  %4 = getelementptr inbounds %"struct.Luau::PendingTypePack", ptr %3, i32 0, i32 0
  %5 = call noundef ptr @_ZN4Luau10getMutableINS_12FreeTypePackEEEPT_PKNS_11TypePackVarE(ptr noundef %4)
  ret ptr %5
}

; Function Attrs: mustprogress uwtable
define dso_local noundef ptr @_ZN4Luau6TxnLog11changeScopeEPKNS_11TypePackVarENS_7NotNullINS_5ScopeEEE(ptr noundef nonnull align 8 dereferenceable(128) %0, ptr noundef %1, ptr %2) #2 align 2 {
  %4 = alloca %"struct.Luau::NotNull.119", align 8
  %5 = alloca ptr, align 8
  %6 = alloca ptr, align 8
  %7 = alloca ptr, align 8
  %8 = alloca ptr, align 8
  %9 = getelementptr inbounds %"struct.Luau::NotNull.119", ptr %4, i32 0, i32 0
  store ptr %2, ptr %9, align 8
  store ptr %0, ptr %5, align 8
  store ptr %1, ptr %6, align 8
  %10 = load ptr, ptr %5, align 8
  %11 = load ptr, ptr %6, align 8
  %12 = call noundef ptr @_ZN4Luau6TxnLog5queueEPKNS_11TypePackVarE(ptr noundef nonnull align 8 dereferenceable(128) %10, ptr noundef %11)
  store ptr %12, ptr %7, align 8
  %13 = load ptr, ptr %7, align 8
  %14 = call noundef ptr @_ZN4Luau10getMutableINS_12FreeTypePackEEEPT_PNS_15PendingTypePackE(ptr noundef %13)
  store ptr %14, ptr %8, align 8
  %15 = load ptr, ptr %8, align 8
  %16 = icmp ne ptr %15, null
  br i1 %16, label %17, label %21

17:                                               ; preds = %3
  %18 = call noundef ptr @_ZNK4Luau7NotNullINS_5ScopeEEcvPS1_Ev(ptr noundef nonnull align 8 dereferenceable(8) %4) #3
  %19 = load ptr, ptr %8, align 8
  %20 = getelementptr inbounds %"struct.Luau::FreeTypePack", ptr %19, i32 0, i32 2
  store ptr %18, ptr %20, align 8
  br label %21

21:                                               ; preds = %17, %3
  %22 = load ptr, ptr %7, align 8
  ret ptr %22
}