; Function Attrs: mustprogress uwtable
define dso_local noundef ptr @_ZN4Luau6TxnLog11changeScopeEPKNS_11TypePackVarENS_7NotNullINS_5ScopeEEE(ptr noundef nonnull align 8 dereferenceable(128) %0, ptr noundef %1, ptr %2) local_unnamed_addr #3 align 2 {
  %4 = tail call noundef ptr @_ZN4Luau6TxnLog5queueEPKNS_11TypePackVarE(ptr noundef nonnull align 8 dereferenceable(128) %0, ptr noundef %1)
  %5 = tail call noundef ptr @_ZN4Luau9asMutableEPKNS_11TypePackVarE(ptr noundef %4)
  %.not.i.i.i = icmp eq ptr %5, null
  br i1 %.not.i.i.i, label %_ZN4Luau10getMutableINS_12FreeTypePackEEEPT_PNS_15PendingTypePackE.exit.thread, label %6

6:                                                ; preds = %3
  %7 = load i32, ptr %5, align 8
  %8 = icmp eq i32 %7, 2
  br i1 %8, label %_ZN4Luau10getMutableINS_12FreeTypePackEEEPT_PNS_15PendingTypePackE.exit, label %_ZN4Luau10getMutableINS_12FreeTypePackEEEPT_PNS_15PendingTypePackE.exit.thread

_ZN4Luau10getMutableINS_12FreeTypePackEEEPT_PNS_15PendingTypePackE.exit: ; preds = %6
  %9 = getelementptr inbounds i8, ptr %5, i64 24
  store ptr %2, ptr %9, align 8
  br label %_ZN4Luau10getMutableINS_12FreeTypePackEEEPT_PNS_15PendingTypePackE.exit.thread

_ZN4Luau10getMutableINS_12FreeTypePackEEEPT_PNS_15PendingTypePackE.exit.thread: ; preds = %3, %6, %_ZN4Luau10getMutableINS_12FreeTypePackEEEPT_PNS_15PendingTypePackE.exit
  ret ptr %4
}